; Function Attrs: nounwind uwtable
define ptr @l___private_Init_Data_Array_Bootstrap_0__Array_isEqvAux_match__1_splitter___rarg(ptr noundef %0, ptr readnone captures(none) %1, ptr noundef %2, ptr noundef %3) local_unnamed_addr #0 {
  %5 = ptrtoint ptr %0 to i64
  %6 = and i64 %5, 1
  %.not = icmp eq i64 %6, 0
  br i1 %.not, label %lean_nat_eq.exit, label %7, !prof !16

7:                                                ; preds = %4
  %8 = icmp eq ptr %0, inttoptr (i64 1 to ptr)
  br i1 %8, label %27, label %10

lean_nat_eq.exit:                                 ; preds = %4
  %9 = tail call zeroext i1 @lean_nat_big_eq(ptr noundef %0, ptr noundef nonnull inttoptr (i64 1 to ptr)) #3
  br i1 %9, label %27, label %10

10:                                               ; preds = %7, %lean_nat_eq.exit
  %11 = ptrtoint ptr %2 to i64
  %12 = and i64 %11, 1
  %.not17 = icmp eq i64 %12, 0
  br i1 %.not17, label %13, label %lean_dec.exit12

13:                                               ; preds = %10
  %14 = load i32, ptr %2, align 4, !tbaa !4
  %15 = icmp sgt i32 %14, 1
  br i1 %15, label %16, label %18, !prof !9

16:                                               ; preds = %13
  %17 = add nsw i32 %14, -1
  store i32 %17, ptr %2, align 4, !tbaa !4
  br label %lean_dec.exit12

18:                                               ; preds = %13
  %.not.i = icmp eq i32 %14, 0
  br i1 %.not.i, label %lean_dec.exit12, label %19

19:                                               ; preds = %18
  tail call void @lean_dec_ref_cold(ptr noundef nonnull %2) #3
  br label %lean_dec.exit12

lean_dec.exit12:                                  ; preds = %19, %18, %16, %10
  br i1 %.not, label %.critedge.i, label %20, !prof !16

20:                                               ; preds = %lean_dec.exit12
  %21 = icmp ult ptr %0, inttoptr (i64 2 to ptr)
  br i1 %21, label %lean_nat_sub.exit, label %22

22:                                               ; preds = %20
  %23 = add i64 %5, -2
  %24 = inttoptr i64 %23 to ptr
  br label %lean_nat_sub.exit

.critedge.i:                                      ; preds = %lean_dec.exit12
  %25 = tail call ptr @lean_nat_big_sub(ptr noundef %0, ptr noundef nonnull inttoptr (i64 3 to ptr)) #3
  br label %lean_nat_sub.exit

lean_nat_sub.exit:                                ; preds = %20, %22, %.critedge.i
  %.1.i = phi ptr [ %25, %.critedge.i ], [ %24, %22 ], [ inttoptr (i64 1 to ptr), %20 ]
  %26 = tail call ptr @lean_apply_2(ptr noundef %3, ptr noundef %.1.i, ptr noundef nonnull inttoptr (i64 1 to ptr)) #3
  br label %38

27:                                               ; preds = %7, %lean_nat_eq.exit
  %28 = ptrtoint ptr %3 to i64
  %29 = and i64 %28, 1
  %.not16 = icmp eq i64 %29, 0
  br i1 %.not16, label %30, label %lean_dec.exit

30:                                               ; preds = %27
  %31 = load i32, ptr %3, align 4, !tbaa !4
  %32 = icmp sgt i32 %31, 1
  br i1 %32, label %33, label %35, !prof !9

33:                                               ; preds = %30
  %34 = add nsw i32 %31, -1
  store i32 %34, ptr %3, align 4, !tbaa !4
  br label %lean_dec.exit

35:                                               ; preds = %30
  %.not.i13 = icmp eq i32 %31, 0
  br i1 %.not.i13, label %lean_dec.exit, label %36

36:                                               ; preds = %35
  tail call void @lean_dec_ref_cold(ptr noundef nonnull %3) #3
  br label %lean_dec.exit

lean_dec.exit:                                    ; preds = %36, %35, %33, %27
  %37 = tail call ptr @lean_apply_1(ptr noundef %2, ptr noundef nonnull inttoptr (i64 1 to ptr)) #3
  br label %38

38:                                               ; preds = %lean_dec.exit, %lean_nat_sub.exit
  %.0 = phi ptr [ %26, %lean_nat_sub.exit ], [ %37, %lean_dec.exit ]
  ret ptr %.0
}